target datalayout = "e-m:e-p270:32:32-p271:32:32-p272:64:64-i64:64-i128:128-f80:128-n8:16:32:64-S128"
target triple = "x86_64-pc-linux-gnu"

%struct.PyEvent = type { i8 }

; Function Attrs: inlinehint nounwind uwtable
define internal zeroext i8 @_Py_atomic_exchange_uint8(ptr noundef %0, i8 noundef zeroext %1) #2 {
  %3 = alloca ptr, align 8
  %4 = alloca i8, align 1
  %5 = alloca i8, align 1
  %6 = alloca i8, align 1
  store ptr %0, ptr %3, align 8, !tbaa !17
  store i8 %1, ptr %4, align 1, !tbaa !13
  %7 = load ptr, ptr %3, align 8, !tbaa !17
  %8 = load i8, ptr %4, align 1, !tbaa !13
  store i8 %8, ptr %5, align 1, !tbaa !13
  %9 = load i8, ptr %5, align 1
  %10 = atomicrmw xchg ptr %7, i8 %9 seq_cst, align 1
  store i8 %10, ptr %6, align 1
  %11 = load i8, ptr %6, align 1, !tbaa !13
  ret i8 %11
}

; Function Attrs: nounwind uwtable
define dso_local void @_PyEvent_Notify(ptr noundef %0) #0 {
  %2 = alloca ptr, align 8
  %3 = alloca i64, align 8
  %4 = alloca i32, align 4
  store ptr %0, ptr %2, align 8, !tbaa !25
  call void @llvm.lifetime.start.p0(i64 8, ptr %3) #7
  %5 = load ptr, ptr %2, align 8, !tbaa !25
  %6 = getelementptr inbounds nuw %struct.PyEvent, ptr %5, i32 0, i32 0
  %7 = call zeroext i8 @_Py_atomic_exchange_uint8(ptr noundef %6, i8 noundef zeroext 1)
  %8 = zext i8 %7 to i64
  store i64 %8, ptr %3, align 8, !tbaa !9
  %9 = load i64, ptr %3, align 8, !tbaa !9
  %10 = icmp eq i64 %9, 0
  br i1 %10, label %11, label %12

11:                                               ; preds = %1
  store i32 1, ptr %4, align 4
  br label %21

12:                                               ; preds = %1
  %13 = load i64, ptr %3, align 8, !tbaa !9
  %14 = icmp eq i64 %13, 1
  br i1 %14, label %15, label %16

15:                                               ; preds = %12
  store i32 1, ptr %4, align 4
  br label %21

16:                                               ; preds = %12
  %17 = load ptr, ptr %2, align 8, !tbaa !25
  %18 = getelementptr inbounds nuw %struct.PyEvent, ptr %17, i32 0, i32 0
  call void @_PyParkingLot_UnparkAll(ptr noundef %18)
  br label %19

19:                                               ; preds = %16
  br label %20

20:                                               ; preds = %19
  store i32 0, ptr %4, align 4
  br label %21

21:                                               ; preds = %20, %15, %11
  call void @llvm.lifetime.end.p0(i64 8, ptr %3) #7
  %22 = load i32, ptr %4, align 4
  switch i32 %22, label %24 [
    i32 0, label %23
    i32 1, label %23
  ]

23:                                               ; preds = %21, %21
  ret void

24:                                               ; preds = %21
  unreachable
}