; Function Attrs: nounwind uwtable
define dso_local void @_PyEvent_Notify(ptr noundef %0) local_unnamed_addr #0 {
  %2 = atomicrmw xchg ptr %0, i8 1 seq_cst, align 1
  %switch = icmp ult i8 %2, 2
  br i1 %switch, label %4, label %3

3:                                                ; preds = %1
  tail call void @_PyParkingLot_UnparkAll(ptr noundef %0) #8
  br label %4

4:                                                ; preds = %1, %3
  ret void
}